; Function Attrs: mustprogress uwtable
define void @_ZN9grpc_core6chttp217StreamFlowControl21IncomingUpdateContext14SetPendingSizeEl(ptr noundef nonnull readonly align 8 captures(none) dereferenceable(16) %0, i64 noundef %1) local_unnamed_addr #3 align 2 personality ptr @__gxx_personality_v0 {
  %3 = alloca %"class.absl::lts_20240722::log_internal::LogMessageFatal", align 8
  %.not.i = icmp slt i64 %1, 0
  br i1 %.not.i, label %8, label %4, !prof !109

4:                                                ; preds = %2
  %5 = getelementptr inbounds nuw i8, ptr %0, i64 8
  %6 = load ptr, ptr %5, align 8, !tbaa !136
  %7 = getelementptr inbounds nuw i8, ptr %6, i64 32
  store i64 %1, ptr %7, align 8
  %.sroa.4.0..sroa_idx = getelementptr inbounds nuw i8, ptr %6, i64 40
  store i8 1, ptr %.sroa.4.0..sroa_idx, align 8
  ret void

8:                                                ; preds = %2
  %9 = tail call noundef nonnull ptr @_ZN4absl12lts_2024072212log_internal17MakeCheckOpStringIllEEPNSt7__cxx1112basic_stringIcSt11char_traitsIcESaIcEEET_T0_PKc(i64 noundef %1, i64 noundef 0, ptr noundef nonnull @.str.29)
  call void @llvm.lifetime.start.p0(i64 16, ptr nonnull %3) #28
  %10 = load ptr, ptr %9, align 8, !tbaa !17
  %11 = getelementptr inbounds nuw i8, ptr %9, i64 8
  %12 = load i64, ptr %11, align 8, !tbaa !20
  call void @_ZN4absl12lts_2024072212log_internal15LogMessageFatalC1EPKciSt17basic_string_viewIcSt11char_traitsIcEE(ptr noundef nonnull align 8 dereferenceable(16) %3, ptr noundef nonnull @.str.4, i32 noundef 385, i64 %12, ptr %10) #30
  call void @_ZN4absl12lts_2024072212log_internal15LogMessageFatalD1Ev(ptr noundef nonnull align 8 dereferenceable(16) %3) #32
  unreachable
}